target datalayout = "e-m:e-p270:32:32-p271:32:32-p272:64:64-i64:64-i128:128-f80:128-n8:16:32:64-S128"
target triple = "x86_64-pc-linux-gnu"

@tv = internal global ptr null, align 8

; Function Attrs: nounwind uwtable
define internal void @ta_event_cb(ptr noundef %0) #0 {
  %2 = alloca ptr, align 8
  %3 = alloca i32, align 4
  %4 = alloca ptr, align 8
  %5 = alloca ptr, align 8
  store ptr %0, ptr %2, align 8, !tbaa !7
  call void @llvm.lifetime.start.p0(i64 4, ptr %3) #5
  %6 = load ptr, ptr %2, align 8, !tbaa !7
  %7 = call i32 @lv_event_get_code(ptr noundef %6)
  store i32 %7, ptr %3, align 4, !tbaa !3
  call void @llvm.lifetime.start.p0(i64 8, ptr %4) #5
  %8 = load ptr, ptr %2, align 8, !tbaa !7
  %9 = call ptr @lv_event_get_target(ptr noundef %8)
  store ptr %9, ptr %4, align 8, !tbaa !7
  call void @llvm.lifetime.start.p0(i64 8, ptr %5) #5
  %10 = load ptr, ptr %2, align 8, !tbaa !7
  %11 = call ptr @lv_event_get_user_data(ptr noundef %10)
  store ptr %11, ptr %5, align 8, !tbaa !7
  %12 = load i32, ptr %3, align 4, !tbaa !3
  %13 = icmp eq i32 %12, 19
  br i1 %13, label %14, label %38

14:                                               ; preds = %1
  %15 = call ptr @lv_indev_active()
  %16 = call i32 @lv_indev_get_type(ptr noundef %15)
  %17 = icmp ne i32 %16, 2
  br i1 %17, label %18, label %37

18:                                               ; preds = %14
  %19 = load ptr, ptr %5, align 8, !tbaa !7
  %20 = load ptr, ptr %4, align 8, !tbaa !7
  call void @lv_keyboard_set_textarea(ptr noundef %19, ptr noundef %20)
  %21 = load ptr, ptr %5, align 8, !tbaa !7
  %22 = call ptr @lv_display_get_default()
  %23 = call i32 @lv_display_get_horizontal_resolution(ptr noundef %22)
  %24 = mul nsw i32 %23, 2
  %25 = sdiv i32 %24, 3
  call void @lv_obj_set_style_max_height(ptr noundef %21, i32 noundef %25, i32 noundef 0)
  %26 = load ptr, ptr @tv, align 8, !tbaa !7
  call void @lv_obj_update_layout(ptr noundef %26)
  %27 = load ptr, ptr @tv, align 8, !tbaa !7
  %28 = call ptr @lv_display_get_default()
  %29 = call i32 @lv_display_get_vertical_resolution(ptr noundef %28)
  %30 = load ptr, ptr %5, align 8, !tbaa !7
  %31 = call i32 @lv_obj_get_height(ptr noundef %30)
  %32 = sub nsw i32 %29, %31
  call void @lv_obj_set_height(ptr noundef %27, i32 noundef %32)
  %33 = load ptr, ptr %5, align 8, !tbaa !7
  call void @lv_obj_remove_flag(ptr noundef %33, i32 noundef 1)
  %34 = load ptr, ptr %4, align 8, !tbaa !7
  call void @lv_obj_scroll_to_view_recursive(ptr noundef %34, i32 noundef 0)
  %35 = load ptr, ptr %2, align 8, !tbaa !7
  %36 = call ptr @lv_event_get_param(ptr noundef %35)
  call void @lv_indev_wait_release(ptr noundef %36)
  br label %37

37:                                               ; preds = %18, %14
  br label %62

38:                                               ; preds = %1
  %39 = load i32, ptr %3, align 4, !tbaa !3
  %40 = icmp eq i32 %39, 20
  br i1 %40, label %41, label %48

41:                                               ; preds = %38
  %42 = load ptr, ptr %5, align 8, !tbaa !7
  call void @lv_keyboard_set_textarea(ptr noundef %42, ptr noundef null)
  %43 = load ptr, ptr @tv, align 8, !tbaa !7
  %44 = call ptr @lv_display_get_default()
  %45 = call i32 @lv_display_get_vertical_resolution(ptr noundef %44)
  call void @lv_obj_set_height(ptr noundef %43, i32 noundef %45)
  %46 = load ptr, ptr %5, align 8, !tbaa !7
  call void @lv_obj_add_flag(ptr noundef %46, i32 noundef 1)
  %47 = load ptr, ptr %4, align 8, !tbaa !7
  call void @lv_indev_reset(ptr noundef null, ptr noundef %47)
  br label %61

48:                                               ; preds = %38
  %49 = load i32, ptr %3, align 4, !tbaa !3
  %50 = icmp eq i32 %49, 38
  br i1 %50, label %54, label %51

51:                                               ; preds = %48
  %52 = load i32, ptr %3, align 4, !tbaa !3
  %53 = icmp eq i32 %52, 39
  br i1 %53, label %54, label %60

54:                                               ; preds = %51, %48
  %55 = load ptr, ptr @tv, align 8, !tbaa !7
  %56 = call ptr @lv_display_get_default()
  %57 = call i32 @lv_display_get_vertical_resolution(ptr noundef %56)
  call void @lv_obj_set_height(ptr noundef %55, i32 noundef %57)
  %58 = load ptr, ptr %5, align 8, !tbaa !7
  call void @lv_obj_add_flag(ptr noundef %58, i32 noundef 1)
  %59 = load ptr, ptr %4, align 8, !tbaa !7
  call void @lv_indev_reset(ptr noundef null, ptr noundef %59)
  br label %60

60:                                               ; preds = %54, %51
  br label %61

61:                                               ; preds = %60, %41
  br label %62

62:                                               ; preds = %61, %37
  call void @llvm.lifetime.end.p0(i64 8, ptr %5) #5
  call void @llvm.lifetime.end.p0(i64 8, ptr %4) #5
  call void @llvm.lifetime.end.p0(i64 4, ptr %3) #5
  ret void
}