; Function Attrs: nounwind uwtable
define internal void @ta_event_cb(ptr noundef %0) #0 {
  %2 = tail call i32 @lv_event_get_code(ptr noundef %0) #5
  %3 = tail call ptr @lv_event_get_target(ptr noundef %0) #5
  %4 = tail call ptr @lv_event_get_user_data(ptr noundef %0) #5
  switch i32 %2, label %24 [
    i32 19, label %5
    i32 20, label %20
  ]

5:                                                ; preds = %1
  %6 = tail call ptr @lv_indev_active() #5
  %7 = tail call i32 @lv_indev_get_type(ptr noundef %6) #5
  %.not = icmp eq i32 %7, 2
  br i1 %.not, label %30, label %8

8:                                                ; preds = %5
  tail call void @lv_keyboard_set_textarea(ptr noundef %4, ptr noundef %3) #5
  %9 = tail call ptr @lv_display_get_default() #5
  %10 = tail call i32 @lv_display_get_horizontal_resolution(ptr noundef %9) #5
  %11 = shl nsw i32 %10, 1
  %12 = sdiv i32 %11, 3
  tail call void @lv_obj_set_style_max_height(ptr noundef %4, i32 noundef %12, i32 noundef 0) #5
  %13 = load ptr, ptr @tv, align 8, !tbaa !7
  tail call void @lv_obj_update_layout(ptr noundef %13) #5
  %14 = load ptr, ptr @tv, align 8, !tbaa !7
  %15 = tail call ptr @lv_display_get_default() #5
  %16 = tail call i32 @lv_display_get_vertical_resolution(ptr noundef %15) #5
  %17 = tail call i32 @lv_obj_get_height(ptr noundef %4) #5
  %18 = sub nsw i32 %16, %17
  tail call void @lv_obj_set_height(ptr noundef %14, i32 noundef %18) #5
  tail call void @lv_obj_remove_flag(ptr noundef %4, i32 noundef 1) #5
  tail call void @lv_obj_scroll_to_view_recursive(ptr noundef %3, i32 noundef 0) #5
  %19 = tail call ptr @lv_event_get_param(ptr noundef %0) #5
  tail call void @lv_indev_wait_release(ptr noundef %19) #5
  br label %30

20:                                               ; preds = %1
  tail call void @lv_keyboard_set_textarea(ptr noundef %4, ptr noundef null) #5
  %21 = load ptr, ptr @tv, align 8, !tbaa !7
  %22 = tail call ptr @lv_display_get_default() #5
  %23 = tail call i32 @lv_display_get_vertical_resolution(ptr noundef %22) #5
  tail call void @lv_obj_set_height(ptr noundef %21, i32 noundef %23) #5
  tail call void @lv_obj_add_flag(ptr noundef %4, i32 noundef 1) #5
  tail call void @lv_indev_reset(ptr noundef null, ptr noundef %3) #5
  br label %30

24:                                               ; preds = %1
  %25 = and i32 %2, -2
  %or.cond = icmp eq i32 %25, 38
  br i1 %or.cond, label %26, label %30

26:                                               ; preds = %24
  %27 = load ptr, ptr @tv, align 8, !tbaa !7
  %28 = tail call ptr @lv_display_get_default() #5
  %29 = tail call i32 @lv_display_get_vertical_resolution(ptr noundef %28) #5
  tail call void @lv_obj_set_height(ptr noundef %27, i32 noundef %29) #5
  tail call void @lv_obj_add_flag(ptr noundef %4, i32 noundef 1) #5
  tail call void @lv_indev_reset(ptr noundef null, ptr noundef %3) #5
  br label %30

30:                                               ; preds = %20, %24, %26, %5, %8
  ret void
}